target datalayout = "e-m:e-p270:32:32-p271:32:32-p272:64:64-i64:64-i128:128-f80:128-n8:16:32:64-S128"
target triple = "x86_64-pc-linux-gnu"

%struct.OSQPCscMatrix = type { i64, i64, ptr, ptr, ptr, i64, i64 }

@.str.58 = private unnamed_addr constant [4 x i8] c"};\0A\00", align 1
@.str.64 = private unnamed_addr constant [9 x i8] c"  %lld,\0A\00", align 1
@.str.65 = private unnamed_addr constant [21 x i8] c"  (OSQPFloat)%.20f,\0A\00", align 1
@.str.171 = private unnamed_addr constant [5 x i8] c"%s_p\00", align 1
@.str.172 = private unnamed_addr constant [5 x i8] c"%s_i\00", align 1
@.str.173 = private unnamed_addr constant [5 x i8] c"%s_x\00", align 1
@.str.174 = private unnamed_addr constant [22 x i8] c"OSQPCscMatrix %s = {\0A\00", align 1
@.str.175 = private unnamed_addr constant [9 x i8] c"  %s_p,\0A\00", align 1
@.str.176 = private unnamed_addr constant [9 x i8] c"  %s_i,\0A\00", align 1
@.str.177 = private unnamed_addr constant [9 x i8] c"  %s_x,\0A\00", align 1
@.str.178 = private unnamed_addr constant [22 x i8] c"OSQPInt %s[%lld] = {\0A\00", align 1
@.str.179 = private unnamed_addr constant [24 x i8] c"#define %s (OSQP_NULL)\0A\00", align 1
@.str.180 = private unnamed_addr constant [24 x i8] c"OSQPFloat %s[%lld] = {\0A\00", align 1

; Function Attrs: nounwind uwtable
define internal i64 @write_vecf(ptr noundef %0, ptr noundef %1, i64 noundef %2, ptr noundef %3) #0 {
  %5 = alloca ptr, align 8
  %6 = alloca ptr, align 8
  %7 = alloca i64, align 8
  %8 = alloca ptr, align 8
  %9 = alloca i64, align 8
  store ptr %0, ptr %5, align 8
  store ptr %1, ptr %6, align 8
  store i64 %2, ptr %7, align 8
  store ptr %3, ptr %8, align 8
  %10 = load i64, ptr %7, align 8
  %11 = icmp ne i64 %10, 0
  br i1 %11, label %12, label %37

12:                                               ; preds = %4
  %13 = load ptr, ptr %6, align 8
  %14 = icmp ne ptr %13, null
  br i1 %14, label %15, label %37

15:                                               ; preds = %12
  %16 = load ptr, ptr %5, align 8
  %17 = load ptr, ptr %8, align 8
  %18 = load i64, ptr %7, align 8
  %19 = call i32 (ptr, ptr, ...) @fprintf(ptr noundef %16, ptr noundef @.str.180, ptr noundef %17, i64 noundef %18) #4
  store i64 0, ptr %9, align 8
  br label %20

20:                                               ; preds = %31, %15
  %21 = load i64, ptr %9, align 8
  %22 = load i64, ptr %7, align 8
  %23 = icmp slt i64 %21, %22
  br i1 %23, label %24, label %34

24:                                               ; preds = %20
  %25 = load ptr, ptr %5, align 8
  %26 = load ptr, ptr %6, align 8
  %27 = load i64, ptr %9, align 8
  %28 = getelementptr inbounds double, ptr %26, i64 %27
  %29 = load double, ptr %28, align 8
  %30 = call i32 (ptr, ptr, ...) @fprintf(ptr noundef %25, ptr noundef @.str.65, double noundef %29) #4
  br label %31

31:                                               ; preds = %24
  %32 = load i64, ptr %9, align 8
  %33 = add nsw i64 %32, 1
  store i64 %33, ptr %9, align 8
  br label %20, !llvm.loop !7

34:                                               ; preds = %20
  %35 = load ptr, ptr %5, align 8
  %36 = call i32 (ptr, ptr, ...) @fprintf(ptr noundef %35, ptr noundef @.str.58) #4
  br label %41

37:                                               ; preds = %12, %4
  %38 = load ptr, ptr %5, align 8
  %39 = load ptr, ptr %8, align 8
  %40 = call i32 (ptr, ptr, ...) @fprintf(ptr noundef %38, ptr noundef @.str.179, ptr noundef %39) #4
  br label %41

41:                                               ; preds = %37, %34
  ret i64 0
}

; Function Attrs: nounwind uwtable
define internal i64 @write_veci(ptr noundef %0, ptr noundef %1, i64 noundef %2, ptr noundef %3) #0 {
  %5 = alloca ptr, align 8
  %6 = alloca ptr, align 8
  %7 = alloca i64, align 8
  %8 = alloca ptr, align 8
  %9 = alloca i64, align 8
  store ptr %0, ptr %5, align 8
  store ptr %1, ptr %6, align 8
  store i64 %2, ptr %7, align 8
  store ptr %3, ptr %8, align 8
  %10 = load i64, ptr %7, align 8
  %11 = icmp ne i64 %10, 0
  br i1 %11, label %12, label %37

12:                                               ; preds = %4
  %13 = load ptr, ptr %6, align 8
  %14 = icmp ne ptr %13, null
  br i1 %14, label %15, label %37

15:                                               ; preds = %12
  %16 = load ptr, ptr %5, align 8
  %17 = load ptr, ptr %8, align 8
  %18 = load i64, ptr %7, align 8
  %19 = call i32 (ptr, ptr, ...) @fprintf(ptr noundef %16, ptr noundef @.str.178, ptr noundef %17, i64 noundef %18) #4
  store i64 0, ptr %9, align 8
  br label %20

20:                                               ; preds = %31, %15
  %21 = load i64, ptr %9, align 8
  %22 = load i64, ptr %7, align 8
  %23 = icmp slt i64 %21, %22
  br i1 %23, label %24, label %34

24:                                               ; preds = %20
  %25 = load ptr, ptr %5, align 8
  %26 = load ptr, ptr %6, align 8
  %27 = load i64, ptr %9, align 8
  %28 = getelementptr inbounds i64, ptr %26, i64 %27
  %29 = load i64, ptr %28, align 8
  %30 = call i32 (ptr, ptr, ...) @fprintf(ptr noundef %25, ptr noundef @.str.64, i64 noundef %29) #4
  br label %31

31:                                               ; preds = %24
  %32 = load i64, ptr %9, align 8
  %33 = add nsw i64 %32, 1
  store i64 %33, ptr %9, align 8
  br label %20, !llvm.loop !6

34:                                               ; preds = %20
  %35 = load ptr, ptr %5, align 8
  %36 = call i32 (ptr, ptr, ...) @fprintf(ptr noundef %35, ptr noundef @.str.58) #4
  br label %41

37:                                               ; preds = %12, %4
  %38 = load ptr, ptr %5, align 8
  %39 = load ptr, ptr %8, align 8
  %40 = call i32 (ptr, ptr, ...) @fprintf(ptr noundef %38, ptr noundef @.str.179, ptr noundef %39) #4
  br label %41

41:                                               ; preds = %37, %34
  ret i64 0
}

; Function Attrs: nounwind uwtable
define internal i64 @write_csc(ptr noundef %0, ptr noundef %1, ptr noundef %2) #0 {
  %4 = alloca i64, align 8
  %5 = alloca ptr, align 8
  %6 = alloca ptr, align 8
  %7 = alloca ptr, align 8
  %8 = alloca i64, align 8
  %9 = alloca [255 x i8], align 16
  store ptr %0, ptr %5, align 8
  store ptr %1, ptr %6, align 8
  store ptr %2, ptr %7, align 8
  store i64 0, ptr %8, align 8
  %10 = load ptr, ptr %6, align 8
  %11 = icmp ne ptr %10, null
  br i1 %11, label %13, label %12

12:                                               ; preds = %3
  store i64 10, ptr %4, align 8
  br label %101

13:                                               ; preds = %3
  %14 = getelementptr inbounds [255 x i8], ptr %9, i64 0, i64 0
  %15 = load ptr, ptr %7, align 8
  %16 = call i32 (ptr, ptr, ...) @sprintf(ptr noundef %14, ptr noundef @.str.171, ptr noundef %15) #4
  %17 = load ptr, ptr %5, align 8
  %18 = load ptr, ptr %6, align 8
  %19 = getelementptr inbounds %struct.OSQPCscMatrix, ptr %18, i32 0, i32 2
  %20 = load ptr, ptr %19, align 8
  %21 = load ptr, ptr %6, align 8
  %22 = getelementptr inbounds %struct.OSQPCscMatrix, ptr %21, i32 0, i32 1
  %23 = load i64, ptr %22, align 8
  %24 = add nsw i64 %23, 1
  %25 = getelementptr inbounds [255 x i8], ptr %9, i64 0, i64 0
  %26 = call i64 @write_veci(ptr noundef %17, ptr noundef %20, i64 noundef %24, ptr noundef %25)
  store i64 %26, ptr %8, align 8
  %27 = load i64, ptr %8, align 8
  %28 = icmp ne i64 %27, 0
  br i1 %28, label %29, label %31

29:                                               ; preds = %13
  %30 = load i64, ptr %8, align 8
  store i64 %30, ptr %4, align 8
  br label %101

31:                                               ; preds = %13
  %32 = getelementptr inbounds [255 x i8], ptr %9, i64 0, i64 0
  %33 = load ptr, ptr %7, align 8
  %34 = call i32 (ptr, ptr, ...) @sprintf(ptr noundef %32, ptr noundef @.str.172, ptr noundef %33) #4
  %35 = load ptr, ptr %5, align 8
  %36 = load ptr, ptr %6, align 8
  %37 = getelementptr inbounds %struct.OSQPCscMatrix, ptr %36, i32 0, i32 3
  %38 = load ptr, ptr %37, align 8
  %39 = load ptr, ptr %6, align 8
  %40 = getelementptr inbounds %struct.OSQPCscMatrix, ptr %39, i32 0, i32 5
  %41 = load i64, ptr %40, align 8
  %42 = getelementptr inbounds [255 x i8], ptr %9, i64 0, i64 0
  %43 = call i64 @write_veci(ptr noundef %35, ptr noundef %38, i64 noundef %41, ptr noundef %42)
  store i64 %43, ptr %8, align 8
  %44 = load i64, ptr %8, align 8
  %45 = icmp ne i64 %44, 0
  br i1 %45, label %46, label %48

46:                                               ; preds = %31
  %47 = load i64, ptr %8, align 8
  store i64 %47, ptr %4, align 8
  br label %101

48:                                               ; preds = %31
  %49 = getelementptr inbounds [255 x i8], ptr %9, i64 0, i64 0
  %50 = load ptr, ptr %7, align 8
  %51 = call i32 (ptr, ptr, ...) @sprintf(ptr noundef %49, ptr noundef @.str.173, ptr noundef %50) #4
  %52 = load ptr, ptr %5, align 8
  %53 = load ptr, ptr %6, align 8
  %54 = getelementptr inbounds %struct.OSQPCscMatrix, ptr %53, i32 0, i32 4
  %55 = load ptr, ptr %54, align 8
  %56 = load ptr, ptr %6, align 8
  %57 = getelementptr inbounds %struct.OSQPCscMatrix, ptr %56, i32 0, i32 5
  %58 = load i64, ptr %57, align 8
  %59 = getelementptr inbounds [255 x i8], ptr %9, i64 0, i64 0
  %60 = call i64 @write_vecf(ptr noundef %52, ptr noundef %55, i64 noundef %58, ptr noundef %59)
  store i64 %60, ptr %8, align 8
  %61 = load i64, ptr %8, align 8
  %62 = icmp ne i64 %61, 0
  br i1 %62, label %63, label %65

63:                                               ; preds = %48
  %64 = load i64, ptr %8, align 8
  store i64 %64, ptr %4, align 8
  br label %101

65:                                               ; preds = %48
  %66 = load ptr, ptr %5, align 8
  %67 = load ptr, ptr %7, align 8
  %68 = call i32 (ptr, ptr, ...) @fprintf(ptr noundef %66, ptr noundef @.str.174, ptr noundef %67) #4
  %69 = load ptr, ptr %5, align 8
  %70 = load ptr, ptr %6, align 8
  %71 = getelementptr inbounds %struct.OSQPCscMatrix, ptr %70, i32 0, i32 0
  %72 = load i64, ptr %71, align 8
  %73 = call i32 (ptr, ptr, ...) @fprintf(ptr noundef %69, ptr noundef @.str.64, i64 noundef %72) #4
  %74 = load ptr, ptr %5, align 8
  %75 = load ptr, ptr %6, align 8
  %76 = getelementptr inbounds %struct.OSQPCscMatrix, ptr %75, i32 0, i32 1
  %77 = load i64, ptr %76, align 8
  %78 = call i32 (ptr, ptr, ...) @fprintf(ptr noundef %74, ptr noundef @.str.64, i64 noundef %77) #4
  %79 = load ptr, ptr %5, align 8
  %80 = load ptr, ptr %7, align 8
  %81 = call i32 (ptr, ptr, ...) @fprintf(ptr noundef %79, ptr noundef @.str.175, ptr noundef %80) #4
  %82 = load ptr, ptr %5, align 8
  %83 = load ptr, ptr %7, align 8
  %84 = call i32 (ptr, ptr, ...) @fprintf(ptr noundef %82, ptr noundef @.str.176, ptr noundef %83) #4
  %85 = load ptr, ptr %5, align 8
  %86 = load ptr, ptr %7, align 8
  %87 = call i32 (ptr, ptr, ...) @fprintf(ptr noundef %85, ptr noundef @.str.177, ptr noundef %86) #4
  %88 = load ptr, ptr %5, align 8
  %89 = load ptr, ptr %6, align 8
  %90 = getelementptr inbounds %struct.OSQPCscMatrix, ptr %89, i32 0, i32 5
  %91 = load i64, ptr %90, align 8
  %92 = call i32 (ptr, ptr, ...) @fprintf(ptr noundef %88, ptr noundef @.str.64, i64 noundef %91) #4
  %93 = load ptr, ptr %5, align 8
  %94 = load ptr, ptr %6, align 8
  %95 = getelementptr inbounds %struct.OSQPCscMatrix, ptr %94, i32 0, i32 6
  %96 = load i64, ptr %95, align 8
  %97 = call i32 (ptr, ptr, ...) @fprintf(ptr noundef %93, ptr noundef @.str.64, i64 noundef %96) #4
  %98 = load ptr, ptr %5, align 8
  %99 = call i32 (ptr, ptr, ...) @fprintf(ptr noundef %98, ptr noundef @.str.58) #4
  %100 = load i64, ptr %8, align 8
  store i64 %100, ptr %4, align 8
  br label %101

101:                                              ; preds = %65, %63, %46, %29, %12
  %102 = load i64, ptr %4, align 8
  ret i64 %102
}