; Function Attrs: nofree nounwind uwtable
define internal fastcc noundef i64 @write_csc(ptr nocapture noundef %0, ptr noundef readonly %1, ptr noundef %2) unnamed_addr #5 {
  %4 = alloca [255 x i8], align 16
  %.not = icmp eq ptr %1, null
  br i1 %.not, label %71, label %5

5:                                                ; preds = %3
  %6 = call i32 (ptr, ptr, ...) @sprintf(ptr noundef nonnull dereferenceable(1) %4, ptr noundef nonnull dereferenceable(1) @.str.171, ptr noundef %2) #8
  %7 = getelementptr inbounds i8, ptr %1, i64 16
  %8 = load ptr, ptr %7, align 8
  %9 = getelementptr inbounds i8, ptr %1, i64 8
  %10 = load i64, ptr %9, align 8
  %11 = add nsw i64 %10, 1
  %12 = icmp ne i64 %11, 0
  %13 = icmp ne ptr %8, null
  %or.cond.i = and i1 %13, %12
  br i1 %or.cond.i, label %14, label %22

14:                                               ; preds = %5
  %15 = call i32 (ptr, ptr, ...) @fprintf(ptr noundef %0, ptr noundef nonnull @.str.178, ptr noundef nonnull %4, i64 noundef %11) #8
  %16 = icmp sgt i64 %10, -1
  br i1 %16, label %.lr.ph.i, label %._crit_edge.i

.lr.ph.i:                                         ; preds = %14, %.lr.ph.i
  %.016.i = phi i64 [ %20, %.lr.ph.i ], [ 0, %14 ]
  %17 = getelementptr inbounds i64, ptr %8, i64 %.016.i
  %18 = load i64, ptr %17, align 8
  %19 = call i32 (ptr, ptr, ...) @fprintf(ptr noundef %0, ptr noundef nonnull @.str.64, i64 noundef %18) #8
  %20 = add nuw nsw i64 %.016.i, 1
  %exitcond.not.i = icmp eq i64 %.016.i, %10
  br i1 %exitcond.not.i, label %._crit_edge.i, label %.lr.ph.i, !llvm.loop !8

._crit_edge.i:                                    ; preds = %.lr.ph.i, %14
  %21 = call i64 @fwrite(ptr nonnull @.str.58, i64 3, i64 1, ptr %0)
  br label %write_veci.exit

22:                                               ; preds = %5
  %23 = call i32 (ptr, ptr, ...) @fprintf(ptr noundef %0, ptr noundef nonnull @.str.179, ptr noundef nonnull %4) #8
  br label %write_veci.exit

write_veci.exit:                                  ; preds = %._crit_edge.i, %22
  %24 = call i32 (ptr, ptr, ...) @sprintf(ptr noundef nonnull dereferenceable(1) %4, ptr noundef nonnull dereferenceable(1) @.str.172, ptr noundef %2) #8
  %25 = getelementptr inbounds i8, ptr %1, i64 24
  %26 = load ptr, ptr %25, align 8
  %27 = getelementptr inbounds i8, ptr %1, i64 40
  %28 = load i64, ptr %27, align 8
  %29 = icmp ne i64 %28, 0
  %30 = icmp ne ptr %26, null
  %or.cond.i41 = and i1 %30, %29
  br i1 %or.cond.i41, label %31, label %39

31:                                               ; preds = %write_veci.exit
  %32 = call i32 (ptr, ptr, ...) @fprintf(ptr noundef %0, ptr noundef nonnull @.str.178, ptr noundef nonnull %4, i64 noundef %28) #8
  %33 = icmp sgt i64 %28, 0
  br i1 %33, label %.lr.ph.i43, label %._crit_edge.i42

.lr.ph.i43:                                       ; preds = %31, %.lr.ph.i43
  %.016.i44 = phi i64 [ %37, %.lr.ph.i43 ], [ 0, %31 ]
  %34 = getelementptr inbounds i64, ptr %26, i64 %.016.i44
  %35 = load i64, ptr %34, align 8
  %36 = call i32 (ptr, ptr, ...) @fprintf(ptr noundef %0, ptr noundef nonnull @.str.64, i64 noundef %35) #8
  %37 = add nuw nsw i64 %.016.i44, 1
  %exitcond.not.i45 = icmp eq i64 %37, %28
  br i1 %exitcond.not.i45, label %._crit_edge.i42, label %.lr.ph.i43, !llvm.loop !8

._crit_edge.i42:                                  ; preds = %.lr.ph.i43, %31
  %38 = call i64 @fwrite(ptr nonnull @.str.58, i64 3, i64 1, ptr %0)
  br label %write_veci.exit46

39:                                               ; preds = %write_veci.exit
  %40 = call i32 (ptr, ptr, ...) @fprintf(ptr noundef %0, ptr noundef nonnull @.str.179, ptr noundef nonnull %4) #8
  br label %write_veci.exit46

write_veci.exit46:                                ; preds = %._crit_edge.i42, %39
  %41 = call i32 (ptr, ptr, ...) @sprintf(ptr noundef nonnull dereferenceable(1) %4, ptr noundef nonnull dereferenceable(1) @.str.173, ptr noundef %2) #8
  %42 = getelementptr inbounds i8, ptr %1, i64 32
  %43 = load ptr, ptr %42, align 8
  %44 = load i64, ptr %27, align 8
  %45 = icmp ne i64 %44, 0
  %46 = icmp ne ptr %43, null
  %or.cond.i47 = and i1 %46, %45
  br i1 %or.cond.i47, label %47, label %55

47:                                               ; preds = %write_veci.exit46
  %48 = call i32 (ptr, ptr, ...) @fprintf(ptr noundef %0, ptr noundef nonnull @.str.180, ptr noundef nonnull %4, i64 noundef %44) #8
  %49 = icmp sgt i64 %44, 0
  br i1 %49, label %.lr.ph.i49, label %._crit_edge.i48

.lr.ph.i49:                                       ; preds = %47, %.lr.ph.i49
  %.016.i50 = phi i64 [ %53, %.lr.ph.i49 ], [ 0, %47 ]
  %50 = getelementptr inbounds double, ptr %43, i64 %.016.i50
  %51 = load double, ptr %50, align 8
  %52 = call i32 (ptr, ptr, ...) @fprintf(ptr noundef %0, ptr noundef nonnull @.str.65, double noundef %51) #8
  %53 = add nuw nsw i64 %.016.i50, 1
  %exitcond.not.i51 = icmp eq i64 %53, %44
  br i1 %exitcond.not.i51, label %._crit_edge.i48, label %.lr.ph.i49, !llvm.loop !7

._crit_edge.i48:                                  ; preds = %.lr.ph.i49, %47
  %54 = call i64 @fwrite(ptr nonnull @.str.58, i64 3, i64 1, ptr %0)
  br label %write_vecf.exit

55:                                               ; preds = %write_veci.exit46
  %56 = call i32 (ptr, ptr, ...) @fprintf(ptr noundef %0, ptr noundef nonnull @.str.179, ptr noundef nonnull %4) #8
  br label %write_vecf.exit

write_vecf.exit:                                  ; preds = %._crit_edge.i48, %55
  %57 = call i32 (ptr, ptr, ...) @fprintf(ptr noundef %0, ptr noundef nonnull @.str.174, ptr noundef %2) #8
  %58 = load i64, ptr %1, align 8
  %59 = call i32 (ptr, ptr, ...) @fprintf(ptr noundef %0, ptr noundef nonnull @.str.64, i64 noundef %58) #8
  %60 = load i64, ptr %9, align 8
  %61 = call i32 (ptr, ptr, ...) @fprintf(ptr noundef %0, ptr noundef nonnull @.str.64, i64 noundef %60) #8
  %62 = call i32 (ptr, ptr, ...) @fprintf(ptr noundef %0, ptr noundef nonnull @.str.175, ptr noundef %2) #8
  %63 = call i32 (ptr, ptr, ...) @fprintf(ptr noundef %0, ptr noundef nonnull @.str.176, ptr noundef %2) #8
  %64 = call i32 (ptr, ptr, ...) @fprintf(ptr noundef %0, ptr noundef nonnull @.str.177, ptr noundef %2) #8
  %65 = load i64, ptr %27, align 8
  %66 = call i32 (ptr, ptr, ...) @fprintf(ptr noundef %0, ptr noundef nonnull @.str.64, i64 noundef %65) #8
  %67 = getelementptr inbounds i8, ptr %1, i64 48
  %68 = load i64, ptr %67, align 8
  %69 = call i32 (ptr, ptr, ...) @fprintf(ptr noundef %0, ptr noundef nonnull @.str.64, i64 noundef %68) #8
  %70 = call i64 @fwrite(ptr nonnull @.str.58, i64 3, i64 1, ptr %0)
  br label %71

71:                                               ; preds = %3, %write_vecf.exit
  %.0 = phi i64 [ 0, %write_vecf.exit ], [ 10, %3 ]
  ret i64 %.0
}